MPASM 5.87                        LAB3-3.ASM   2-21-2026  16:16:22         PAGE  1


LOC  OBJECT CODE     LINE SOURCE TEXT
  VALUE

                      00001 #include "p16f628.inc"
                      00001         LIST
                      00002 
                      00003 ;==========================================================================
                      00004 ; Build date : Jan 06 2020
                      00005 ;  MPASM PIC16F628 processor include
                      00006 ; 
                      00007 ;  (c) Copyright 1999-2020 Microchip Technology, All rights reserved
                      00008 ;==========================================================================
                      00009 
Message[301]: MESSAGE: (Processor-header file mismatch.  Verify selected processor.)
                      00382         LIST
Warning[205]: Found directive in column 1. (__CONFIG)
2007   3FE2           00002 __CONFIG _CP_OFF & _WDT_OFF & _PWRTE_ON & _HS_OSC
                      00003 
  00000020            00004 ctr     equ 0x20        ; 1ms counter (runs 1 to 20)
                      00005         org 0x000
0000   2???           00006         goto main
                      00007         org 0x004
0004   2???           00008         goto isr
                      00009 
0005                  00010 main
0005   3007           00011         movlw   0x07        ; Turn off comparators
0006   009F           00012         movwf   CMCON       ; Set pins to digital I/O mode
                      00013     
0007   1683 1303      00014         banksel TRISB
Message[302]: Register in operand not in bank 0.  Ensure that bank bits are correct.
0009   0186           00015         clrf    TRISB       ; PORTB as output
000A   3010           00016         movlw   b'00010000' ; RA4 as input for switch 
Message[302]: Register in operand not in bank 0.  Ensure that bank bits are correct.
000B   0085           00017         movwf   TRISA
                      00018   
000C   3081           00019         movlw   b'10000001' 
Message[302]: Register in operand not in bank 0.  Ensure that bank bits are correct.
000D   0081           00020         movwf   OPTION_REG  ; 
                      00021         ; Bit 5 (TOCS = 0) : Internal Clock
                      00022         ; Bit 3 (PSA = 0)  : assign To Time Module 
                      00023         ; Bit 3 (PSA = 0)  : Prescale assign to Timer0
                      00024         ; Bit 0-2 : Prescale : 1:4
                      00025     
000E   1283 1303      00026         banksel PORTB
0010   0186           00027         clrf    PORTB       ; 
0011   01A0           00028         clrf    ctr
                      00029         
                      00030         ; Prescale 1:4 = 0.25 Mhz
                      00031         ; T = 4 us
                      00032         ; 1000 us / 4 us = 250 tick
                      00033         ; 256 - 250 = 6
                      00034     
0012   3006           00035         movlw   .6              ; Preload for 1ms 
0013   0081           00036         movwf   TMR0
                      00037     
0014   168B           00038         bsf     INTCON, T0IE    ; Enable TMR0 interrupt 
MPASM 5.87                        LAB3-3.ASM   2-21-2026  16:16:22         PAGE  2


LOC  OBJECT CODE     LINE SOURCE TEXT
  VALUE

0015   178B           00039         bsf     INTCON, GIE     ; Enable Global interrupt
                      00040     
                      00041 
0016                  00042 loop
0016   2???           00043         goto    loop            ; Wait for interrupts [cite: 100]
                      00044 
0017                  00045 isr
0017   3006           00046         movlw   .6              ; Reload for next 1ms
0018   0081           00047         movwf   TMR0
0019   110B           00048         bcf     INTCON, T0IF    ; Clear flag 
                      00049     
001A   0AA0           00050         incf    ctr, F          ; Increment 1ms counter
                      00051     
                      00052     ; Reset cycle if counter reaches 20 (20ms)
001B   3014           00053         movlw   .20             ; Load 20 to w
001C   0220           00054         subwf   ctr, W          ; W - ctr 
001D   1903           00055         btfsc   STATUS, Z       ; 
001E   01A0           00056         clrf    ctr
                      00057     
                      00058     ; START OF PULSE (At ctr = 0, turn ON)
001F   3001           00059         movlw   .1
0020   0220           00060         subwf   ctr, W
0021   1903           00061         btfsc   STATUS, Z
0022   1486           00062         bsf     PORTB, 1    ; RB1 High
                      00063 
                      00064     ; Check Switch (RA4) to decide when to turn OFF
0023   1E05           00065         btfss   PORTA, 4    ; If RA4 is High, go to Mode 2 (2ms)
0024   2???           00066         goto    mode_1ms
0025   2???           00067         goto    mode_2ms
                      00068 
                      00069 ; Turn OFF after 1ms (at ctr = 1)
0026   3001           00070 mode_1ms:   movlw   .1
0027   0220           00071             subwf   ctr, W
0028   1D03           00072             btfss   STATUS, Z
0029   1086           00073             bcf     PORTB, 1    ; Turn OFF
002A   0009           00074             retfie
                      00075 
                      00076 ; Turn OFF after 2ms (at ctr = 2)
002B   3002           00077 mode_2ms:   movlw   .2
002C   0220           00078             subwf   ctr, W
002D   1D03           00079             btfss   STATUS, Z
002E   2???           00080             goto    check_off
002F   0009           00081             retfie
                      00082             
0030   3002           00083 check_off:  movlw   .2
0031   0220           00084             subwf   ctr, W
0032   1803           00085             btfsc   STATUS, C   ; If ctr > 2
0033   1086           00086             bcf     PORTB, 1    ; Turn OFF
0034   0009           00087             retfie
3FE2                  00088             end
MPASM 5.87                        LAB3-3.ASM   2-21-2026  16:16:22         PAGE  3


SYMBOL TABLE
  LABEL                             VALUE 

ADDEN                             00000003
ADEN                              00000003
BRGH                              00000002
C                                 00000000
C1INV                             00000004
C1OUT                             00000006
C2INV                             00000005
C2OUT                             00000007
CCP1CON                           00000017
CCP1IE                            00000002
CCP1IF                            00000002
CCP1M0                            00000000
CCP1M1                            00000001
CCP1M2                            00000002
CCP1M3                            00000003
CCP1X                             00000005
CCP1Y                             00000004
CCPR1                             00000015
CCPR1H                            00000016
CCPR1L                            00000015
CIS                               00000003
CM0                               00000000
CM1                               00000001
CM2                               00000002
CMCON                             0000001F
CMIE                              00000006
CMIF                              00000006
CREN                              00000004
CSRC                              00000007
DATA_CP_OFF                       00003FFF
DATA_CP_ON                        00003EFF
DC                                00000001
EEADR                             0000009B
EECON1                            0000009C
EECON2                            0000009D
EEDATA                            0000009A
EEIE                              00000007
EEIF                              00000007
F                                 00000001
FERR                              00000002
FSR                               00000004
GIE                               00000007
INDF                              00000000
INTCON                            0000000B
INTE                              00000004
INTEDG                            00000006
INTF                              00000001
IRP                               00000007
NOT_BO                            00000000
NOT_BOD                           00000000
NOT_BOR                           00000000
NOT_PD                            00000003
NOT_POR                           00000001
MPASM 5.87                        LAB3-3.ASM   2-21-2026  16:16:22         PAGE  4


SYMBOL TABLE
  LABEL                             VALUE 

NOT_RBPU                          00000007
NOT_T1SYNC                        00000002
NOT_TO                            00000004
OERR                              00000001
OPTION_REG                        00000081
OSCF                              00000003
PCL                               00000002
PCLATH                            0000000A
PCON                              0000008E
PEIE                              00000006
PIE1                              0000008C
PIR1                              0000000C
PORTA                             00000005
PORTB                             00000006
PR2                               00000092
PS0                               00000000
PS1                               00000001
PS2                               00000002
PSA                               00000003
RA0                               00000000
RA1                               00000001
RA2                               00000002
RA3                               00000003
RA4                               00000004
RA5                               00000005
RA6                               00000006
RA7                               00000007
RB0                               00000000
RB1                               00000001
RB2                               00000002
RB3                               00000003
RB4                               00000004
RB5                               00000005
RB6                               00000006
RB7                               00000007
RBIE                              00000003
RBIF                              00000000
RCIE                              00000005
RCIF                              00000005
RCREG                             0000001A
RCSTA                             00000018
RD                                00000000
RP0                               00000005
RP1                               00000006
RX9                               00000006
RX9D                              00000000
SPBRG                             00000099
SPEN                              00000007
SREN                              00000005
STATUS                            00000003
SYNC                              00000004
T0CS                              00000005
T0IE                              00000005
MPASM 5.87                        LAB3-3.ASM   2-21-2026  16:16:22         PAGE  5


SYMBOL TABLE
  LABEL                             VALUE 

T0IF                              00000002
T0SE                              00000004
T1CKPS0                           00000004
T1CKPS1                           00000005
T1CON                             00000010
T1OSCEN                           00000003
T2CKPS0                           00000000
T2CKPS1                           00000001
T2CON                             00000012
TMR0                              00000001
TMR0IE                            00000005
TMR0IF                            00000002
TMR1                              0000000E
TMR1CS                            00000001
TMR1H                             0000000F
TMR1IE                            00000000
TMR1IF                            00000000
TMR1L                             0000000E
TMR1ON                            00000000
TMR2                              00000011
TMR2IE                            00000001
TMR2IF                            00000001
TMR2ON                            00000002
TOUTPS0                           00000003
TOUTPS1                           00000004
TOUTPS2                           00000005
TOUTPS3                           00000006
TRISA                             00000085
TRISA0                            00000000
TRISA1                            00000001
TRISA2                            00000002
TRISA3                            00000003
TRISA4                            00000004
TRISA5                            00000005
TRISA6                            00000006
TRISA7                            00000007
TRISB                             00000086
TRISB0                            00000000
TRISB1                            00000001
TRISB2                            00000002
TRISB3                            00000003
TRISB4                            00000004
TRISB5                            00000005
TRISB6                            00000006
TRISB7                            00000007
TRMT                              00000001
TX9                               00000006
TX9D                              00000000
TXEN                              00000005
TXIE                              00000004
TXIF                              00000004
TXREG                             00000019
TXSTA                             00000098
MPASM 5.87                        LAB3-3.ASM   2-21-2026  16:16:22         PAGE  6


SYMBOL TABLE
  LABEL                             VALUE 

VR0                               00000000
VR1                               00000001
VR2                               00000002
VR3                               00000003
VRCON                             0000009F
VREN                              00000007
VROE                              00000006
VRR                               00000005
W                                 00000000
WR                                00000001
WREN                              00000002
WRERR                             00000003
Z                                 00000002
_BODEN_OFF                        00003FBF
_BODEN_ON                         00003FFF
_BOREN_OFF                        00003FBF
_BOREN_ON                         00003FFF
_CONFIG                           00002007
_CPD_OFF                          00003FFF
_CPD_ON                           00003EFF
_CP_50                            00002BFF
_CP_75                            000017FF
_CP_ALL                           000003FF
_CP_OFF                           00003FFF
_DEVID1                           00002006
_ER_OSC_CLKOUT                    00003FFF
_ER_OSC_NOCLKOUT                  00003FFE
_EXTCLK_OSC                       00003FEF
_FOSC_ECIO                        00003FEF
_FOSC_ERCLK                       00003FFF
_FOSC_ERIO                        00003FFE
_FOSC_HS                          00003FEE
_FOSC_INTOSCCLK                   00003FFD
_FOSC_INTOSCIO                    00003FFC
_FOSC_LP                          00003FEC
_FOSC_XT                          00003FED
_HS_OSC                           00003FEE
_IDLOC0                           00002000
_IDLOC1                           00002001
_IDLOC2                           00002002
_IDLOC3                           00002003
_INTRC_OSC_CLKOUT                 00003FFD
_INTRC_OSC_NOCLKOUT               00003FFC
_LP_OSC                           00003FEC
_LVP_OFF                          00003F7F
_LVP_ON                           00003FFF
_MCLRE_OFF                        00003FDF
_MCLRE_ON                         00003FFF
_PWRTE_OFF                        00003FFF
_PWRTE_ON                         00003FF7
_WDTE_OFF                         00003FFB
_WDTE_ON                          00003FFF
_WDT_OFF                          00003FFB
MPASM 5.87                        LAB3-3.ASM   2-21-2026  16:16:22         PAGE  7


SYMBOL TABLE
  LABEL                             VALUE 

_WDT_ON                           00003FFF
_XT_OSC                           00003FED
__16F628A                         00000001
check_off                         00000030
ctr                               00000020
isr                               00000017
loop                              00000016
main                              00000005
mode_1ms                          00000026
mode_2ms                          0000002B

Errors   :     0
Warnings :     1 reported,     0 suppressed
Messages :     4 reported,     0 suppressed

